; Function Attrs: nounwind uwtable
define internal ptr @nu_halffloat(ptr readnone captures(none) %0, ptr noundef %1, ptr readnone captures(none) %2) #0 {
  %4 = tail call double @PyFloat_Unpack2(ptr noundef %1, i32 noundef 1) #7
  %5 = fcmp oeq double %4, -1.000000e+00
  br i1 %5, label %6, label %8

6:                                                ; preds = %3
  %7 = tail call ptr @PyErr_Occurred() #7
  %.not.i = icmp eq ptr %7, null
  br i1 %.not.i, label %8, label %unpack_halffloat.exit

8:                                                ; preds = %6, %3
  %9 = tail call ptr @PyFloat_FromDouble(double noundef %4) #7
  br label %unpack_halffloat.exit

unpack_halffloat.exit:                            ; preds = %6, %8
  %.0.i = phi ptr [ %9, %8 ], [ null, %6 ]
  ret ptr %.0.i
}